target datalayout = "e-m:e-p270:32:32-p271:32:32-p272:64:64-i64:64-i128:128-f80:128-n8:16:32:64-S128"
target triple = "x86_64-pc-linux-gnu"

%struct.yyjson_alc = type { ptr, ptr, ptr, ptr }
%struct.yyjson_write_err = type { i32, ptr }

@YYJSON_DEFAULT_ALC = internal constant %struct.yyjson_alc { ptr @default_malloc, ptr @default_realloc, ptr @default_free, ptr null }, align 8
@.str.35 = private unnamed_addr constant [20 x i8] c"file opening failed\00", align 1
@.str.41 = private unnamed_addr constant [22 x i8] c"input path is invalid\00", align 1
@.str.103 = private unnamed_addr constant [20 x i8] c"file writing failed\00", align 1
@.str.104 = private unnamed_addr constant [20 x i8] c"file closing failed\00", align 1
@.str.105 = private unnamed_addr constant [4 x i8] c"wbe\00", align 1

; Function Attrs: alwaysinline nounwind uwtable
define internal ptr @fopen_safe(ptr noundef %0, ptr noundef %1) #4 {
  %3 = alloca ptr, align 8
  %4 = alloca ptr, align 8
  store ptr %0, ptr %3, align 8, !tbaa !92
  store ptr %1, ptr %4, align 8, !tbaa !92
  %5 = load ptr, ptr %3, align 8, !tbaa !92
  %6 = load ptr, ptr %4, align 8, !tbaa !92
  %7 = call noalias ptr @fopen(ptr noundef %5, ptr noundef %6)
  ret ptr %7
}

; Function Attrs: alwaysinline nounwind uwtable
define internal ptr @fopen_writeonly(ptr noundef %0) #4 {
  %2 = alloca ptr, align 8
  store ptr %0, ptr %2, align 8, !tbaa !92
  %3 = load ptr, ptr %2, align 8, !tbaa !92
  %4 = call ptr @fopen_safe(ptr noundef %3, ptr noundef @.str.105)
  ret ptr %4
}

; Function Attrs: nounwind uwtable
define internal zeroext i1 @write_dat_to_file(ptr noundef %0, ptr noundef %1, i64 noundef %2, ptr noundef %3) #0 {
  %5 = alloca i1, align 1
  %6 = alloca ptr, align 8
  %7 = alloca ptr, align 8
  %8 = alloca i64, align 8
  %9 = alloca ptr, align 8
  %10 = alloca ptr, align 8
  %11 = alloca i32, align 4
  store ptr %0, ptr %6, align 8, !tbaa !92
  store ptr %1, ptr %7, align 8, !tbaa !92
  store i64 %2, ptr %8, align 8, !tbaa !10
  store ptr %3, ptr %9, align 8, !tbaa !238
  call void @llvm.lifetime.start.p0(i64 8, ptr %10) #13
  %12 = load ptr, ptr %6, align 8, !tbaa !92
  %13 = call ptr @fopen_writeonly(ptr noundef %12)
  store ptr %13, ptr %10, align 8, !tbaa !223
  %14 = load ptr, ptr %10, align 8, !tbaa !223
  %15 = icmp eq ptr %14, null
  br i1 %15, label %16, label %30

16:                                               ; preds = %4
  br label %17

17:                                               ; preds = %16
  %18 = load ptr, ptr %9, align 8, !tbaa !238
  %19 = getelementptr inbounds nuw %struct.yyjson_write_err, ptr %18, i32 0, i32 1
  store ptr @.str.35, ptr %19, align 8, !tbaa !240
  %20 = load ptr, ptr %9, align 8, !tbaa !238
  %21 = getelementptr inbounds nuw %struct.yyjson_write_err, ptr %20, i32 0, i32 0
  store i32 5, ptr %21, align 8, !tbaa !242
  %22 = load ptr, ptr %10, align 8, !tbaa !223
  %23 = icmp ne ptr %22, null
  br i1 %23, label %24, label %27

24:                                               ; preds = %17
  %25 = load ptr, ptr %10, align 8, !tbaa !223
  %26 = call i32 @fclose(ptr noundef %25)
  br label %27

27:                                               ; preds = %24, %17
  store i1 false, ptr %5, align 1
  store i32 1, ptr %11, align 4
  br label %69

28:                                               ; No predecessors!
  br label %29

29:                                               ; preds = %28
  br label %30

30:                                               ; preds = %29, %4
  %31 = load ptr, ptr %7, align 8, !tbaa !92
  %32 = load i64, ptr %8, align 8, !tbaa !10
  %33 = load ptr, ptr %10, align 8, !tbaa !223
  %34 = call i64 @fwrite(ptr noundef %31, i64 noundef %32, i64 noundef 1, ptr noundef %33)
  %35 = icmp ne i64 %34, 1
  br i1 %35, label %36, label %50

36:                                               ; preds = %30
  br label %37

37:                                               ; preds = %36
  %38 = load ptr, ptr %9, align 8, !tbaa !238
  %39 = getelementptr inbounds nuw %struct.yyjson_write_err, ptr %38, i32 0, i32 1
  store ptr @.str.103, ptr %39, align 8, !tbaa !240
  %40 = load ptr, ptr %9, align 8, !tbaa !238
  %41 = getelementptr inbounds nuw %struct.yyjson_write_err, ptr %40, i32 0, i32 0
  store i32 6, ptr %41, align 8, !tbaa !242
  %42 = load ptr, ptr %10, align 8, !tbaa !223
  %43 = icmp ne ptr %42, null
  br i1 %43, label %44, label %47

44:                                               ; preds = %37
  %45 = load ptr, ptr %10, align 8, !tbaa !223
  %46 = call i32 @fclose(ptr noundef %45)
  br label %47

47:                                               ; preds = %44, %37
  store i1 false, ptr %5, align 1
  store i32 1, ptr %11, align 4
  br label %69

48:                                               ; No predecessors!
  br label %49

49:                                               ; preds = %48
  br label %50

50:                                               ; preds = %49, %30
  %51 = load ptr, ptr %10, align 8, !tbaa !223
  %52 = call i32 @fclose(ptr noundef %51)
  %53 = icmp ne i32 %52, 0
  br i1 %53, label %54, label %68

54:                                               ; preds = %50
  store ptr null, ptr %10, align 8, !tbaa !223
  br label %55

55:                                               ; preds = %54
  %56 = load ptr, ptr %9, align 8, !tbaa !238
  %57 = getelementptr inbounds nuw %struct.yyjson_write_err, ptr %56, i32 0, i32 1
  store ptr @.str.104, ptr %57, align 8, !tbaa !240
  %58 = load ptr, ptr %9, align 8, !tbaa !238
  %59 = getelementptr inbounds nuw %struct.yyjson_write_err, ptr %58, i32 0, i32 0
  store i32 6, ptr %59, align 8, !tbaa !242
  %60 = load ptr, ptr %10, align 8, !tbaa !223
  %61 = icmp ne ptr %60, null
  br i1 %61, label %62, label %65

62:                                               ; preds = %55
  %63 = load ptr, ptr %10, align 8, !tbaa !223
  %64 = call i32 @fclose(ptr noundef %63)
  br label %65

65:                                               ; preds = %62, %55
  store i1 false, ptr %5, align 1
  store i32 1, ptr %11, align 4
  br label %69

66:                                               ; No predecessors!
  br label %67

67:                                               ; preds = %66
  br label %68

68:                                               ; preds = %67, %50
  store i1 true, ptr %5, align 1
  store i32 1, ptr %11, align 4
  br label %69

69:                                               ; preds = %68, %65, %47, %27
  call void @llvm.lifetime.end.p0(i64 8, ptr %10) #13
  %70 = load i1, ptr %5, align 1
  ret i1 %70
}

; Function Attrs: nounwind uwtable
define dso_local zeroext i1 @yyjson_val_write_file(ptr noundef %0, ptr noundef %1, i32 noundef %2, ptr noundef %3, ptr noundef %4) #0 {
  %6 = alloca i1, align 1
  %7 = alloca ptr, align 8
  %8 = alloca ptr, align 8
  %9 = alloca i32, align 4
  %10 = alloca ptr, align 8
  %11 = alloca ptr, align 8
  %12 = alloca %struct.yyjson_write_err, align 8
  %13 = alloca ptr, align 8
  %14 = alloca i64, align 8
  %15 = alloca ptr, align 8
  %16 = alloca i8, align 1
  %17 = alloca i32, align 4
  store ptr %0, ptr %7, align 8, !tbaa !92
  store ptr %1, ptr %8, align 8, !tbaa !86
  store i32 %2, ptr %9, align 4, !tbaa !174
  store ptr %3, ptr %10, align 8, !tbaa !4
  store ptr %4, ptr %11, align 8, !tbaa !238
  call void @llvm.lifetime.start.p0(i64 16, ptr %12) #13
  call void @llvm.lifetime.start.p0(i64 8, ptr %13) #13
  call void @llvm.lifetime.start.p0(i64 8, ptr %14) #13
  store i64 0, ptr %14, align 8, !tbaa !10
  call void @llvm.lifetime.start.p0(i64 8, ptr %15) #13
  %18 = load ptr, ptr %8, align 8, !tbaa !86
  %19 = ptrtoint ptr %18 to i64
  %20 = inttoptr i64 %19 to ptr
  store ptr %20, ptr %15, align 8, !tbaa !86
  call void @llvm.lifetime.start.p0(i64 1, ptr %16) #13
  %21 = load ptr, ptr %10, align 8, !tbaa !4
  %22 = icmp ne ptr %21, null
  br i1 %22, label %23, label %25

23:                                               ; preds = %5
  %24 = load ptr, ptr %10, align 8, !tbaa !4
  br label %26

25:                                               ; preds = %5
  br label %26

26:                                               ; preds = %25, %23
  %27 = phi ptr [ %24, %23 ], [ @YYJSON_DEFAULT_ALC, %25 ]
  store ptr %27, ptr %10, align 8, !tbaa !4
  %28 = load ptr, ptr %11, align 8, !tbaa !238
  %29 = icmp ne ptr %28, null
  br i1 %29, label %30, label %32

30:                                               ; preds = %26
  %31 = load ptr, ptr %11, align 8, !tbaa !238
  br label %33

32:                                               ; preds = %26
  br label %33

33:                                               ; preds = %32, %30
  %34 = phi ptr [ %31, %30 ], [ %12, %32 ]
  store ptr %34, ptr %11, align 8, !tbaa !238
  %35 = load ptr, ptr %7, align 8, !tbaa !92
  %36 = icmp ne ptr %35, null
  br i1 %36, label %37, label %42

37:                                               ; preds = %33
  %38 = load ptr, ptr %7, align 8, !tbaa !92
  %39 = load i8, ptr %38, align 1, !tbaa !87
  %40 = icmp ne i8 %39, 0
  %41 = xor i1 %40, true
  br label %42

42:                                               ; preds = %37, %33
  %43 = phi i1 [ true, %33 ], [ %41, %37 ]
  %44 = xor i1 %43, true
  %45 = xor i1 %44, true
  %46 = zext i1 %45 to i32
  %47 = sext i32 %46 to i64
  %48 = call i64 @llvm.expect.i64(i64 %47, i64 0)
  %49 = icmp ne i64 %48, 0
  br i1 %49, label %50, label %55

50:                                               ; preds = %42
  %51 = load ptr, ptr %11, align 8, !tbaa !238
  %52 = getelementptr inbounds nuw %struct.yyjson_write_err, ptr %51, i32 0, i32 1
  store ptr @.str.41, ptr %52, align 8, !tbaa !240
  %53 = load ptr, ptr %11, align 8, !tbaa !238
  %54 = getelementptr inbounds nuw %struct.yyjson_write_err, ptr %53, i32 0, i32 0
  store i32 1, ptr %54, align 8, !tbaa !242
  store i1 false, ptr %6, align 1
  store i32 1, ptr %17, align 4
  br label %87

55:                                               ; preds = %42
  %56 = load ptr, ptr %15, align 8, !tbaa !86
  %57 = load i32, ptr %9, align 4, !tbaa !174
  %58 = load ptr, ptr %10, align 8, !tbaa !4
  %59 = load ptr, ptr %11, align 8, !tbaa !238
  %60 = call ptr @yyjson_val_write_opts(ptr noundef %56, i32 noundef %57, ptr noundef %58, ptr noundef %14, ptr noundef %59)
  store ptr %60, ptr %13, align 8, !tbaa !92
  %61 = load ptr, ptr %13, align 8, !tbaa !92
  %62 = icmp ne ptr %61, null
  %63 = xor i1 %62, true
  %64 = xor i1 %63, true
  %65 = xor i1 %64, true
  %66 = zext i1 %65 to i32
  %67 = sext i32 %66 to i64
  %68 = call i64 @llvm.expect.i64(i64 %67, i64 0)
  %69 = icmp ne i64 %68, 0
  br i1 %69, label %70, label %71

70:                                               ; preds = %55
  store i1 false, ptr %6, align 1
  store i32 1, ptr %17, align 4
  br label %87

71:                                               ; preds = %55
  %72 = load ptr, ptr %7, align 8, !tbaa !92
  %73 = load ptr, ptr %13, align 8, !tbaa !92
  %74 = load i64, ptr %14, align 8, !tbaa !10
  %75 = load ptr, ptr %11, align 8, !tbaa !238
  %76 = call zeroext i1 @write_dat_to_file(ptr noundef %72, ptr noundef %73, i64 noundef %74, ptr noundef %75)
  %77 = zext i1 %76 to i8
  store i8 %77, ptr %16, align 1, !tbaa !98
  %78 = load ptr, ptr %10, align 8, !tbaa !4
  %79 = getelementptr inbounds nuw %struct.yyjson_alc, ptr %78, i32 0, i32 2
  %80 = load ptr, ptr %79, align 8, !tbaa !26
  %81 = load ptr, ptr %10, align 8, !tbaa !4
  %82 = getelementptr inbounds nuw %struct.yyjson_alc, ptr %81, i32 0, i32 3
  %83 = load ptr, ptr %82, align 8, !tbaa !27
  %84 = load ptr, ptr %13, align 8, !tbaa !92
  call void %80(ptr noundef %83, ptr noundef %84)
  %85 = load i8, ptr %16, align 1, !tbaa !98, !range !100, !noundef !101
  %86 = trunc i8 %85 to i1
  store i1 %86, ptr %6, align 1
  store i32 1, ptr %17, align 4
  br label %87

87:                                               ; preds = %71, %70, %50
  call void @llvm.lifetime.end.p0(i64 1, ptr %16) #13
  call void @llvm.lifetime.end.p0(i64 8, ptr %15) #13
  call void @llvm.lifetime.end.p0(i64 8, ptr %14) #13
  call void @llvm.lifetime.end.p0(i64 8, ptr %13) #13
  call void @llvm.lifetime.end.p0(i64 16, ptr %12) #13
  %88 = load i1, ptr %6, align 1
  ret i1 %88
}