; Function Attrs: nounwind uwtable
define dso_local noundef zeroext i1 @yyjson_val_write_file(ptr noundef readonly captures(address_is_null) %0, ptr noundef captures(address_is_null) %1, i32 noundef %2, ptr noundef captures(address_is_null) %3, ptr noundef captures(address_is_null) %4) local_unnamed_addr #8 {
  %6 = alloca %struct.yyjson_write_err, align 8
  %7 = alloca i64, align 8
  call void @llvm.lifetime.start.p0(i64 16, ptr nonnull %6) #31
  call void @llvm.lifetime.start.p0(i64 8, ptr nonnull %7) #31
  store i64 0, ptr %7, align 8, !tbaa !85
  %.not = icmp eq ptr %3, null
  %8 = select i1 %.not, ptr @YYJSON_DEFAULT_ALC, ptr %3
  %.not22 = icmp eq ptr %4, null
  %9 = select i1 %.not22, ptr %6, ptr %4
  %.not23 = icmp eq ptr %0, null
  br i1 %.not23, label %.critedge, label %10, !prof !4

10:                                               ; preds = %5
  %11 = load i8, ptr %0, align 1, !tbaa !75
  %.not24 = icmp eq i8 %11, 0
  br i1 %.not24, label %.critedge, label %12, !prof !4

.critedge:                                        ; preds = %5, %10
  %.sroa.sel.v.sroa.sel.v.sroa.sel.v = select i1 %.not22, ptr %6, ptr %4
  %.sroa.sel.v.sroa.sel.v.sroa.sel = getelementptr inbounds nuw i8, ptr %.sroa.sel.v.sroa.sel.v.sroa.sel.v, i64 8
  store ptr @.str.41, ptr %.sroa.sel.v.sroa.sel.v.sroa.sel, align 8, !tbaa !204
  store i32 1, ptr %9, align 8, !tbaa !206
  br label %30

12:                                               ; preds = %10
  %13 = call ptr @yyjson_val_write_opts(ptr noundef %1, i32 noundef %2, ptr noundef nonnull %8, ptr noundef nonnull %7, ptr noundef nonnull %9)
  %.not25 = icmp eq ptr %13, null
  br i1 %.not25, label %30, label %14, !prof !4

14:                                               ; preds = %12
  %15 = load i64, ptr %7, align 8, !tbaa !85
  %16 = call noalias ptr @fopen(ptr noundef nonnull readonly %0, ptr noundef nonnull @.str.105)
  %17 = icmp eq ptr %16, null
  br i1 %17, label %18, label %19

18:                                               ; preds = %14
  %.sroa.sel35.v.sroa.sel.v.sroa.sel.v = select i1 %.not22, ptr %6, ptr %4
  %.sroa.sel35.v.sroa.sel.v.sroa.sel = getelementptr inbounds nuw i8, ptr %.sroa.sel35.v.sroa.sel.v.sroa.sel.v, i64 8
  store ptr @.str.35, ptr %.sroa.sel35.v.sroa.sel.v.sroa.sel, align 8, !tbaa !204
  store i32 5, ptr %9, align 8, !tbaa !206
  br label %write_dat_to_file.exit

19:                                               ; preds = %14
  %20 = call i64 @fwrite(ptr noundef nonnull %13, i64 noundef %15, i64 noundef 1, ptr noundef nonnull %16)
  %.not.i = icmp eq i64 %20, 1
  br i1 %.not.i, label %23, label %21

21:                                               ; preds = %19
  %.sroa.sel29.v.sroa.sel.v.sroa.sel.v = select i1 %.not22, ptr %6, ptr %4
  %.sroa.sel29.v.sroa.sel.v.sroa.sel = getelementptr inbounds nuw i8, ptr %.sroa.sel29.v.sroa.sel.v.sroa.sel.v, i64 8
  store ptr @.str.103, ptr %.sroa.sel29.v.sroa.sel.v.sroa.sel, align 8, !tbaa !204
  store i32 6, ptr %9, align 8, !tbaa !206
  %22 = call i32 @fclose(ptr noundef nonnull %16)
  br label %write_dat_to_file.exit

23:                                               ; preds = %19
  %24 = call i32 @fclose(ptr noundef nonnull %16)
  %.not19.i = icmp eq i32 %24, 0
  br i1 %.not19.i, label %write_dat_to_file.exit, label %25

25:                                               ; preds = %23
  %.sroa.sel32.v.sroa.sel.v.sroa.sel.v = select i1 %.not22, ptr %6, ptr %4
  %.sroa.sel32.v.sroa.sel.v.sroa.sel = getelementptr inbounds nuw i8, ptr %.sroa.sel32.v.sroa.sel.v.sroa.sel.v, i64 8
  store ptr @.str.104, ptr %.sroa.sel32.v.sroa.sel.v.sroa.sel, align 8, !tbaa !204
  store i32 6, ptr %9, align 8, !tbaa !206
  br label %write_dat_to_file.exit

write_dat_to_file.exit:                           ; preds = %18, %21, %23, %25
  %.0.i = phi i1 [ false, %18 ], [ false, %21 ], [ false, %25 ], [ true, %23 ]
  %26 = getelementptr inbounds nuw i8, ptr %8, i64 16
  %27 = load ptr, ptr %26, align 8, !tbaa !21
  %28 = getelementptr inbounds nuw i8, ptr %8, i64 24
  %29 = load ptr, ptr %28, align 8, !tbaa !22
  call void %27(ptr noundef %29, ptr noundef nonnull %13) #31
  br label %30

30:                                               ; preds = %12, %write_dat_to_file.exit, %.critedge
  %.0 = phi i1 [ false, %.critedge ], [ %.0.i, %write_dat_to_file.exit ], [ false, %12 ]
  call void @llvm.lifetime.end.p0(i64 8, ptr nonnull %7) #31
  call void @llvm.lifetime.end.p0(i64 16, ptr nonnull %6) #31
  ret i1 %.0
}